; Function Attrs: mustprogress nofree norecurse nosync nounwind willreturn memory(none) uwtable
define noundef range(i64 -127, 4294967462) i64 @_ZN3net19GetPacketHeaderSizeENS_11QuicVersionENS_22QuicConnectionIdLengthEbbbNS_22QuicPacketNumberLengthE(i32 noundef %0, i32 noundef %1, i1 noundef zeroext %2, i1 noundef zeroext %3, i1 noundef zeroext %4, i8 noundef signext %5) local_unnamed_addr #1 {
  %7 = zext i32 %1 to i64
  %8 = add nuw nsw i64 %7, 1
  %9 = select i1 %2, i64 4, i64 0
  %10 = zext i1 %3 to i64
  %11 = sext i8 %5 to i64
  %12 = select i1 %4, i64 32, i64 0
  %13 = icmp slt i32 %0, 34
  %14 = zext i1 %13 to i64
  %15 = add nuw nsw i64 %8, %14
  %16 = add nuw nsw i64 %15, %9
  %17 = add nuw nsw i64 %16, %10
  %18 = add nuw nsw i64 %17, %12
  %19 = add nsw i64 %18, %11
  ret i64 %19
}